; Function Attrs: nounwind uwtable
define internal fastcc void @FreeUserData(ptr noundef captures(none) %0) unnamed_addr #0 {
  %2 = getelementptr inbounds nuw i8, ptr %0, i64 88
  %3 = load i32, ptr %2, align 8, !tbaa !35
  %4 = icmp sgt i32 %3, 0
  br i1 %4, label %.lr.ph, label %._crit_edge

.lr.ph:                                           ; preds = %1
  %5 = getelementptr inbounds nuw i8, ptr %0, i64 32
  %wide.trip.count = zext nneg i32 %3 to i64
  br label %6

6:                                                ; preds = %.lr.ph, %6
  %indvars.iv = phi i64 [ 0, %.lr.ph ], [ %indvars.iv.next, %6 ]
  %7 = getelementptr inbounds nuw [4 x ptr], ptr %0, i64 0, i64 %indvars.iv
  %8 = load ptr, ptr %7, align 8, !tbaa !14
  tail call void @SUNDlsMat_destroyMat(ptr noundef %8) #10
  %9 = getelementptr inbounds nuw [4 x ptr], ptr %5, i64 0, i64 %indvars.iv
  %10 = load ptr, ptr %9, align 8, !tbaa !16
  tail call void @SUNDlsMat_destroyArray(ptr noundef %10) #10
  %indvars.iv.next = add nuw nsw i64 %indvars.iv, 1
  %exitcond.not = icmp eq i64 %indvars.iv.next, %wide.trip.count
  br i1 %exitcond.not, label %._crit_edge, label %6

._crit_edge:                                      ; preds = %6, %1
  %11 = getelementptr inbounds nuw i8, ptr %0, i64 2432
  %12 = load ptr, ptr %11, align 8, !tbaa !18
  tail call void @N_VDestroy(ptr noundef %12) #10
  %13 = getelementptr inbounds nuw i8, ptr %0, i64 2424
  %14 = load ptr, ptr %13, align 8, !tbaa !23
  tail call void @N_VDestroy(ptr noundef %14) #10
  tail call void @free(ptr noundef nonnull %0) #10
  ret void
}